Certificate:
    Data:
        Version: 3 (0x2)
        Serial Number:
            7e:66:e1:78:19:06:12:30:f3:ea:e1:81:05:cf:c4:5c
        Signature Algorithm: sha256WithRSAEncryption
        Issuer: CN=mtls-demo
        Validity
            Not Before: Dec 24 18:37:53 2022 GMT
            Not After : Dec  8 18:37:53 2025 GMT
        Subject: C=RO, ST=Bucharest, L=Bucharest, O=MTA, OU=Master-Admin, CN=mtls-demo
        Subject Public Key Info:
            Public Key Algorithm: rsaEncryption
                RSA Public-Key: (2048 bit)
                Modulus:
                    00:d7:61:d9:68:a1:c3:91:26:7c:59:6e:58:65:e0:
                    24:ff:21:11:08:d4:bb:1f:22:de:ce:e7:36:d6:f7:
                    23:51:11:47:ef:ec:93:43:ed:28:cb:bb:15:a7:12:
                    f0:5d:59:a6:c1:97:1c:15:4a:53:dc:79:ef:6c:69:
                    02:d1:b7:4b:2c:4b:0b:24:b4:50:3d:2f:a8:32:83:
                    31:40:ef:76:b1:79:25:e5:a9:af:93:05:c9:de:67:
                    15:c4:3e:13:d5:b5:ae:74:bd:b9:dd:3a:34:6e:8f:
                    3b:98:8d:10:ce:5a:11:f5:0d:b5:f0:57:ac:e0:0e:
                    66:cd:df:0c:06:74:92:50:39:f0:8c:f0:45:de:73:
                    94:eb:a7:08:c9:06:a7:9c:47:5b:58:52:0b:a2:a0:
                    b4:5f:09:4a:05:44:9d:04:db:96:bc:9d:15:ff:9d:
                    d4:39:2d:16:b0:b3:f9:a9:c9:71:7c:ed:5a:5f:c7:
                    27:bf:53:41:fd:47:d5:99:b8:20:0b:01:30:37:28:
                    4f:bb:6a:d6:c8:9e:fd:09:05:8a:b9:fc:2c:4f:5e:
                    56:55:30:1c:c3:b6:53:06:c8:6f:73:23:ba:e9:78:
                    ee:7d:e3:94:1c:75:06:4d:f6:62:e0:ba:15:6a:60:
                    63:8d:13:e2:a7:dd:59:3a:5a:ca:b1:2b:ea:d8:f0:
                    5f:07
                Exponent: 65537 (0x10001)
        X509v3 extensions:
            X509v3 Basic Constraints: 
                CA:FALSE
            X509v3 Subject Key Identifier: 
                6F:A3:38:76:60:61:67:A5:5A:67:EB:D6:FC:D5:19:72:8E:03:9D:03
            X509v3 Authority Key Identifier: 
                keyid:07:DF:C8:84:CE:C8:C4:8B:D2:82:93:81:20:1E:53:12:19:5A:5E:D8
                DirName:/CN=mtls-demo
                serial:41:37:C6:1B:55:14:9C:4B:10:F4:CF:98:BC:08:8C:58:7E:3F:D9:B5

            X509v3 Extended Key Usage: 
                TLS Web Client Authentication
            X509v3 Key Usage: 
                Digital Signature
    Signature Algorithm: sha256WithRSAEncryption
         a4:61:8d:9e:53:4f:34:d9:19:a6:56:f6:49:3d:62:e2:c0:e8:
         de:f0:fc:90:10:a5:46:d2:73:94:61:42:b9:45:22:6b:e3:35:
         03:a3:2a:fb:52:e7:6a:76:c1:7c:2d:d8:7d:e0:48:1a:fa:f3:
         db:0a:d0:0d:69:cc:36:54:90:00:00:47:a5:64:b4:d8:c3:be:
         e8:26:57:ec:19:90:33:85:c0:69:c0:b8:47:25:95:29:8e:0f:
         0b:b6:0b:18:1b:82:ef:f2:15:f0:17:6d:b2:59:f8:91:f3:51:
         30:79:b1:57:09:e0:36:73:53:52:a4:3f:c3:9b:90:5c:42:cb:
         a3:91:42:11:ed:b1:1b:2f:58:94:06:eb:a0:7e:c6:1e:65:da:
         df:48:0a:50:80:7d:fe:fc:d0:42:45:fc:5f:a2:f3:59:5d:c5:
         95:00:06:c5:ec:02:0e:44:dd:88:96:9f:b5:f2:7d:2e:d5:47:
         39:97:f3:b4:33:c7:56:5a:71:09:c8:b5:6d:d1:f9:1d:d2:84:
         ed:6e:99:7e:f2:85:21:92:0c:d6:46:0a:a2:71:d8:fa:b8:26:
         cc:f7:46:ef:d3:1a:c7:c6:6c:7b:79:59:30:6d:60:2e:2a:a7:
         c0:0d:1a:fb:05:90:32:b1:78:7b:51:df:26:99:4d:63:ff:44:
         ba:c1:fd:ff
-----BEGIN CERTIFICATE-----
MIIDrTCCApWgAwIBAgIQfmbheBkGEjDz6uGBBc/EXDANBgkqhkiG9w0BAQsFADAU
MRIwEAYDVQQDDAltdGxzLWRlbW8wHhcNMjIxMjI0MTgzNzUzWhcNMjUxMjA4MTgz
NzUzWjBuMQswCQYDVQQGEwJSTzESMBAGA1UECAwJQnVjaGFyZXN0MRIwEAYDVQQH
DAlCdWNoYXJlc3QxDDAKBgNVBAoMA01UQTEVMBMGA1UECwwMTWFzdGVyLUFkbWlu
MRIwEAYDVQQDDAltdGxzLWRlbW8wggEiMA0GCSqGSIb3DQEBAQUAA4IBDwAwggEK
AoIBAQDXYdloocORJnxZblhl4CT/IREI1LsfIt7O5zbW9yNREUfv7JND7SjLuxWn
EvBdWabBlxwVSlPcee9saQLRt0ssSwsktFA9L6gygzFA73axeSXlqa+TBcneZxXE
PhPVta50vbndOjRujzuYjRDOWhH1DbXwV6zgDmbN3wwGdJJQOfCM8EXec5TrpwjJ
BqecR1tYUguioLRfCUoFRJ0E25a8nRX/ndQ5LRaws/mpyXF87Vpfxye/U0H9R9WZ
uCALATA3KE+7atbInv0JBYq5/CxPXlZVMBzDtlMGyG9zI7rpeO5945QcdQZN9mLg
uhVqYGONE+Kn3Vk6WsqxK+rY8F8HAgMBAAGjgaAwgZ0wCQYDVR0TBAIwADAdBgNV
HQ4EFgQUb6M4dmBhZ6VaZ+vW/NUZco4DnQMwTwYDVR0jBEgwRoAUB9/IhM7IxIvS
gpOBIB5TEhlaXtihGKQWMBQxEjAQBgNVBAMMCW10bHMtZGVtb4IUQTfGG1UUnEsQ
9M+YvAiMWH4/2bUwEwYDVR0lBAwwCgYIKwYBBQUHAwIwCwYDVR0PBAQDAgeAMA0G
CSqGSIb3DQEBCwUAA4IBAQCkYY2eU0802RmmVvZJPWLiwOje8PyQEKVG0nOUYUK5
RSJr4zUDoyr7UudqdsF8Ldh94Ega+vPbCtANacw2VJAAAEelZLTYw77oJlfsGZAz
hcBpwLhHJZUpjg8LtgsYG4Lv8hXwF22yWfiR81EwebFXCeA2c1NSpD/Dm5BcQsuj
kUIR7bEbL1iUBuugfsYeZdrfSApQgH3+/NBCRfxfovNZXcWVAAbF7AIORN2Ilp+1
8n0u1Uc5l/O0M8dWWnEJyLVt0fkd0oTtbpl+8oUhkgzWRgqicdj6uCbM90bv0xrH
xmx7eVkwbWAuKqfADRr7BZAysXh7Ud8mmU1j/0S6wf3/
-----END CERTIFICATE-----
