Certificate:
    Data:
        Version: 3 (0x2)
        Serial Number:
            73:79:c9:1d:90:4d:e6:03:c7:bc:d7:01:73:93:b9:dc
        Signature Algorithm: sha256WithRSAEncryption
        Issuer: CN=mtls-demo
        Validity
            Not Before: Feb  6 13:54:48 2023 GMT
            Not After : Jan 21 13:54:48 2026 GMT
        Subject: C=RO, ST=Bucharest, L=Bucharest, O=MTA, OU=Master-Admin, CN=mtls-admin-client/emailAddress=admin@mta.ro
        Subject Public Key Info:
            Public Key Algorithm: rsaEncryption
                RSA Public-Key: (2048 bit)
                Modulus:
                    00:b5:88:ce:ef:b3:14:9c:bf:b8:f6:45:38:35:8b:
                    60:53:96:73:88:2f:09:50:33:79:97:e6:b6:b3:0d:
                    9a:be:9f:69:7b:bb:91:5d:46:7a:8c:42:f2:ed:92:
                    53:6b:01:02:65:4a:5a:ef:09:cd:a8:49:a3:43:78:
                    0e:08:19:b5:65:47:b9:ea:89:8d:02:1b:a6:ce:4c:
                    b2:d0:ed:73:5f:80:66:67:6b:c8:86:38:5b:0f:be:
                    4b:93:6d:ab:3d:27:4a:c5:eb:26:ac:59:8f:b7:dd:
                    07:3b:b0:1a:b9:a1:79:46:23:8b:11:0f:00:7c:84:
                    40:de:4a:bc:22:9d:0e:3f:24:eb:cc:ca:75:45:6e:
                    92:5d:93:0b:f1:5c:54:8f:ba:b6:e4:44:b1:d9:b6:
                    e5:70:e9:f7:48:78:67:14:e5:cc:05:bd:46:a1:19:
                    6c:34:07:0a:c2:ef:fc:43:60:73:33:40:4a:c9:8b:
                    cd:b8:6d:22:ba:d9:48:30:ac:01:4d:5c:f2:6e:2a:
                    e4:26:f9:0b:3f:42:a5:7e:04:20:ab:fb:6d:6a:11:
                    c6:5c:64:01:4a:12:b2:dc:68:24:c0:96:f7:8f:2e:
                    06:7e:5c:2d:f5:1c:27:35:0d:77:1d:29:3b:60:3e:
                    75:1f:6f:a6:c3:19:7c:83:74:57:cc:d1:7d:7e:bd:
                    0e:a7
                Exponent: 65537 (0x10001)
        X509v3 extensions:
            X509v3 Basic Constraints: 
                CA:FALSE
            X509v3 Subject Key Identifier: 
                C4:B2:1C:2B:4F:13:88:20:F7:42:62:03:6D:D4:A5:40:61:00:46:9A
            X509v3 Authority Key Identifier: 
                keyid:07:DF:C8:84:CE:C8:C4:8B:D2:82:93:81:20:1E:53:12:19:5A:5E:D8
                DirName:/CN=mtls-demo
                serial:41:37:C6:1B:55:14:9C:4B:10:F4:CF:98:BC:08:8C:58:7E:3F:D9:B5

            X509v3 Extended Key Usage: 
                TLS Web Client Authentication
            X509v3 Key Usage: 
                Digital Signature
    Signature Algorithm: sha256WithRSAEncryption
         88:45:eb:14:bf:00:b0:c5:65:18:62:57:64:bc:09:90:6c:5b:
         63:66:1e:4e:f6:09:42:88:9a:32:77:69:ff:57:02:8a:c9:60:
         68:5a:4f:ee:8e:c0:1e:42:51:ea:2a:12:83:8d:d5:51:50:d1:
         95:22:c7:49:de:d0:2d:09:cd:ed:bf:cc:7b:8e:60:d2:8f:08:
         6a:42:b4:b2:f9:bd:97:8c:6a:c0:a1:82:8d:72:6d:ee:74:82:
         46:57:26:1a:46:b1:59:20:fd:cc:73:78:2b:01:ac:5f:e7:b0:
         60:2d:c3:a1:56:29:5c:11:ed:4b:74:58:a1:38:42:8e:07:62:
         29:91:94:8d:0e:5c:d0:7e:8c:33:89:a9:30:b1:4b:89:d7:9c:
         a6:2a:9f:89:58:0f:58:dd:fc:92:b7:ba:fd:cc:75:82:8c:2b:
         8f:90:84:53:2e:b8:e9:ee:e2:36:1e:d7:5f:ea:ea:7c:b0:96:
         ae:d1:5d:35:b0:f2:4c:65:2d:64:12:52:53:4b:4b:01:34:72:
         b6:d9:bc:32:18:9f:81:ae:0d:24:a4:b4:1a:d4:89:0c:78:85:
         ea:15:f8:36:f9:8a:fe:ba:b9:ea:d2:d3:6b:6f:eb:e9:d3:54:
         ab:0d:f8:08:0f:de:b1:25:91:19:65:e0:7c:4f:01:1e:38:43:
         41:45:3a:eb
-----BEGIN CERTIFICATE-----
MIID0zCCArugAwIBAgIQc3nJHZBN5gPHvNcBc5O53DANBgkqhkiG9w0BAQsFADAU
MRIwEAYDVQQDDAltdGxzLWRlbW8wHhcNMjMwMjA2MTM1NDQ4WhcNMjYwMTIxMTM1
NDQ4WjCBkzELMAkGA1UEBhMCUk8xEjAQBgNVBAgMCUJ1Y2hhcmVzdDESMBAGA1UE
BwwJQnVjaGFyZXN0MQwwCgYDVQQKDANNVEExFTATBgNVBAsMDE1hc3Rlci1BZG1p
bjEaMBgGA1UEAwwRbXRscy1hZG1pbi1jbGllbnQxGzAZBgkqhkiG9w0BCQEWDGFk
bWluQG10YS5ybzCCASIwDQYJKoZIhvcNAQEBBQADggEPADCCAQoCggEBALWIzu+z
FJy/uPZFODWLYFOWc4gvCVAzeZfmtrMNmr6faXu7kV1GeoxC8u2SU2sBAmVKWu8J
zahJo0N4DggZtWVHueqJjQIbps5MstDtc1+AZmdryIY4Ww++S5Ntqz0nSsXrJqxZ
j7fdBzuwGrmheUYjixEPAHyEQN5KvCKdDj8k68zKdUVukl2TC/FcVI+6tuREsdm2
5XDp90h4ZxTlzAW9RqEZbDQHCsLv/ENgczNASsmLzbhtIrrZSDCsAU1c8m4q5Cb5
Cz9CpX4EIKv7bWoRxlxkAUoSstxoJMCW948uBn5cLfUcJzUNdx0pO2A+dR9vpsMZ
fIN0V8zRfX69DqcCAwEAAaOBoDCBnTAJBgNVHRMEAjAAMB0GA1UdDgQWBBTEshwr
TxOIIPdCYgNt1KVAYQBGmjBPBgNVHSMESDBGgBQH38iEzsjEi9KCk4EgHlMSGVpe
2KEYpBYwFDESMBAGA1UEAwwJbXRscy1kZW1vghRBN8YbVRScSxD0z5i8CIxYfj/Z
tTATBgNVHSUEDDAKBggrBgEFBQcDAjALBgNVHQ8EBAMCB4AwDQYJKoZIhvcNAQEL
BQADggEBAIhF6xS/ALDFZRhiV2S8CZBsW2NmHk72CUKImjJ3af9XAorJYGhaT+6O
wB5CUeoqEoON1VFQ0ZUix0ne0C0Jze2/zHuOYNKPCGpCtLL5vZeMasChgo1ybe50
gkZXJhpGsVkg/cxzeCsBrF/nsGAtw6FWKVwR7Ut0WKE4Qo4HYimRlI0OXNB+jDOJ
qTCxS4nXnKYqn4lYD1jd/JK3uv3MdYKMK4+QhFMuuOnu4jYe11/q6nywlq7RXTWw
8kxlLWQSUlNLSwE0crbZvDIYn4GuDSSktBrUiQx4heoV+Db5iv66uerS02tv6+nT
VKsN+AgP3rElkRll4HxPAR44Q0FFOus=
-----END CERTIFICATE-----
