Certificate:
    Data:
        Version: 3 (0x2)
        Serial Number:
            75:73:c1:d6:1c:ce:ed:ea:b4:62:e1:d8:3e:1a:9a:e3
        Signature Algorithm: sha256WithRSAEncryption
        Issuer: CN=mtls-demo
        Validity
            Not Before: Dec 28 19:34:36 2022 GMT
            Not After : Dec 12 19:34:36 2025 GMT
        Subject: C=RO, ST=Bucharest, L=Bucharest, O=MTA, OU=Master-Admin, CN=mtls-demo/emailAddress=admin@mta.ro
        Subject Public Key Info:
            Public Key Algorithm: rsaEncryption
                RSA Public-Key: (2048 bit)
                Modulus:
                    00:c4:19:1c:cb:c8:6f:20:9c:cb:7b:3c:60:4a:2c:
                    8b:20:8c:5e:47:cb:a1:fd:8d:07:5e:9c:4c:f2:f0:
                    96:a0:44:95:fb:72:18:b1:30:12:e5:a3:bb:de:5f:
                    d5:f2:46:22:41:ac:d8:21:c9:d7:74:ad:73:c0:01:
                    8e:5c:fb:4c:38:4d:5f:db:17:de:3d:ab:82:15:ef:
                    81:2b:02:1c:db:37:ac:0b:c7:0c:22:c8:b5:41:49:
                    cf:40:c9:82:c8:13:dd:93:85:f8:ff:3d:22:bf:60:
                    83:5e:e6:5c:53:fe:c6:5c:2e:50:75:a4:77:66:4a:
                    ba:2b:0f:05:79:37:d7:7b:25:28:6b:49:4b:43:d9:
                    1c:ee:0d:6e:d1:d0:62:cb:e3:6e:97:86:80:77:4e:
                    df:ec:1d:ab:1f:31:4f:fd:89:bc:44:4c:08:b6:5c:
                    bb:84:89:44:f3:c9:7a:49:6b:de:5e:be:bf:ac:36:
                    e4:f8:df:9a:cc:53:70:70:b9:64:22:1d:85:50:1e:
                    e7:40:cd:b1:61:19:77:4c:87:94:98:a4:46:67:9b:
                    33:ae:5c:48:73:74:b0:e5:30:b4:db:55:73:fe:f8:
                    f9:84:1e:ff:59:b6:92:75:34:61:d5:86:33:a6:3d:
                    ca:94:1f:be:4d:35:dc:45:0e:da:71:ae:d9:b3:94:
                    93:17
                Exponent: 65537 (0x10001)
        X509v3 extensions:
            X509v3 Basic Constraints: 
                CA:FALSE
            X509v3 Subject Key Identifier: 
                AF:5F:92:11:4E:07:F0:AE:0B:18:98:7C:02:78:37:35:61:62:A0:4D
            X509v3 Authority Key Identifier: 
                keyid:07:DF:C8:84:CE:C8:C4:8B:D2:82:93:81:20:1E:53:12:19:5A:5E:D8
                DirName:/CN=mtls-demo
                serial:41:37:C6:1B:55:14:9C:4B:10:F4:CF:98:BC:08:8C:58:7E:3F:D9:B5

            X509v3 Extended Key Usage: 
                TLS Web Client Authentication
            X509v3 Key Usage: 
                Digital Signature
    Signature Algorithm: sha256WithRSAEncryption
         b3:3c:05:a2:4b:3e:d2:2e:5d:42:92:9c:d2:16:c9:70:85:1c:
         98:78:57:73:e5:f4:81:eb:83:c6:8e:cb:02:7b:9d:71:02:9b:
         0c:bd:bd:71:64:ef:9e:c7:44:36:80:57:29:a1:fd:1c:79:a9:
         32:b2:48:2f:d1:c3:57:86:90:42:e0:d0:f5:83:8f:0e:82:74:
         47:cb:ed:be:97:94:e3:0d:82:ca:b2:ff:1b:cc:77:8d:66:13:
         0f:e9:eb:74:fa:28:c9:19:85:67:50:14:43:1d:0e:9d:4c:a8:
         2c:f2:93:36:d0:31:23:61:53:14:5e:43:5b:d1:48:a8:69:f9:
         ce:b7:d3:2b:9e:c3:0d:c7:22:5d:b8:be:90:f8:16:b5:29:16:
         be:e1:c7:4f:48:50:8b:1a:89:38:39:53:db:94:fa:0b:87:14:
         42:b5:ae:25:4e:e5:56:7b:2f:63:32:31:c8:c3:cd:3a:53:3c:
         e7:35:5c:ba:5c:78:a7:b5:ff:06:b8:46:23:ed:d4:de:ea:fe:
         cc:a5:10:28:52:77:aa:d4:db:24:ba:f8:a4:8e:80:f7:19:19:
         81:47:51:04:20:3e:5a:36:7a:c5:d7:d5:0b:90:18:93:44:f7:
         58:84:f2:fe:7d:f6:ac:5f:34:25:91:9a:12:04:93:5a:75:4e:
         96:13:8a:6a
-----BEGIN CERTIFICATE-----
MIIDyzCCArOgAwIBAgIQdXPB1hzO7eq0YuHYPhqa4zANBgkqhkiG9w0BAQsFADAU
MRIwEAYDVQQDDAltdGxzLWRlbW8wHhcNMjIxMjI4MTkzNDM2WhcNMjUxMjEyMTkz
NDM2WjCBizELMAkGA1UEBhMCUk8xEjAQBgNVBAgMCUJ1Y2hhcmVzdDESMBAGA1UE
BwwJQnVjaGFyZXN0MQwwCgYDVQQKDANNVEExFTATBgNVBAsMDE1hc3Rlci1BZG1p
bjESMBAGA1UEAwwJbXRscy1kZW1vMRswGQYJKoZIhvcNAQkBFgxhZG1pbkBtdGEu
cm8wggEiMA0GCSqGSIb3DQEBAQUAA4IBDwAwggEKAoIBAQDEGRzLyG8gnMt7PGBK
LIsgjF5Hy6H9jQdenEzy8JagRJX7chixMBLlo7veX9XyRiJBrNghydd0rXPAAY5c
+0w4TV/bF949q4IV74ErAhzbN6wLxwwiyLVBSc9AyYLIE92Thfj/PSK/YINe5lxT
/sZcLlB1pHdmSrorDwV5N9d7JShrSUtD2RzuDW7R0GLL426XhoB3Tt/sHasfMU/9
ibxETAi2XLuEiUTzyXpJa95evr+sNuT435rMU3BwuWQiHYVQHudAzbFhGXdMh5SY
pEZnmzOuXEhzdLDlMLTbVXP++PmEHv9ZtpJ1NGHVhjOmPcqUH75NNdxFDtpxrtmz
lJMXAgMBAAGjgaAwgZ0wCQYDVR0TBAIwADAdBgNVHQ4EFgQUr1+SEU4H8K4LGJh8
Ang3NWFioE0wTwYDVR0jBEgwRoAUB9/IhM7IxIvSgpOBIB5TEhlaXtihGKQWMBQx
EjAQBgNVBAMMCW10bHMtZGVtb4IUQTfGG1UUnEsQ9M+YvAiMWH4/2bUwEwYDVR0l
BAwwCgYIKwYBBQUHAwIwCwYDVR0PBAQDAgeAMA0GCSqGSIb3DQEBCwUAA4IBAQCz
PAWiSz7SLl1CkpzSFslwhRyYeFdz5fSB64PGjssCe51xApsMvb1xZO+ex0Q2gFcp
of0ceakyskgv0cNXhpBC4ND1g48OgnRHy+2+l5TjDYLKsv8bzHeNZhMP6et0+ijJ
GYVnUBRDHQ6dTKgs8pM20DEjYVMUXkNb0UioafnOt9MrnsMNxyJduL6Q+Ba1KRa+
4cdPSFCLGok4OVPblPoLhxRCta4lTuVWey9jMjHIw806UzznNVy6XHintf8GuEYj
7dTe6v7MpRAoUneq1NskuvikjoD3GRmBR1EEID5aNnrF19ULkBiTRPdYhPL+ffas
XzQlkZoSBJNadU6WE4pq
-----END CERTIFICATE-----
