Certificate:
    Data:
        Version: 3 (0x2)
        Serial Number:
            32:b2:97:1c:5b:d2:eb:68:70:ce:6c:da:c1:50:24:c8
        Signature Algorithm: sha256WithRSAEncryption
        Issuer: CN=mtls-demo
        Validity
            Not Before: Feb  6 13:54:19 2023 GMT
            Not After : Jan 21 13:54:19 2026 GMT
        Subject: C=RO, ST=Bucharest, L=Bucharest, O=MTA, OU=Master-Client, CN=mtls-pub-client/emailAddress=client@mta.ro
        Subject Public Key Info:
            Public Key Algorithm: rsaEncryption
                RSA Public-Key: (2048 bit)
                Modulus:
                    00:e4:b1:6c:15:81:81:da:86:be:8c:fd:3f:78:24:
                    5b:4f:f7:8f:b9:2e:27:5b:09:7d:60:22:44:18:fe:
                    54:64:e8:b0:aa:fa:d4:8f:04:35:bb:30:ef:77:f0:
                    aa:72:bf:48:b8:59:0a:2b:e9:d1:6e:d3:c3:28:1a:
                    f6:68:2a:41:da:87:8f:d7:7c:45:4d:bc:41:3f:47:
                    6c:1e:f0:4a:44:d1:40:cb:eb:ff:ce:54:86:d9:9c:
                    71:00:90:de:f1:46:7c:65:0d:51:9b:b4:08:9a:9f:
                    e7:1e:05:12:be:47:43:0f:7e:55:52:7f:f5:96:02:
                    b3:e5:f6:13:38:67:f0:41:35:5e:c3:28:7b:2e:4a:
                    78:12:26:31:f7:f5:58:40:ef:70:9c:e5:38:10:bd:
                    e2:c5:9c:31:f1:57:57:26:1c:58:a5:2b:95:90:42:
                    98:df:55:5c:0f:cf:b0:67:bd:b2:9e:21:fe:ec:d2:
                    b9:d4:33:84:8e:97:29:29:5e:5b:1a:bc:0f:64:c6:
                    87:b5:e6:05:54:88:75:f1:90:7e:2d:f9:8d:5c:9e:
                    85:4c:c8:7e:04:43:59:c4:3c:f7:a3:ad:16:69:aa:
                    25:cf:34:e6:be:c9:62:9e:4a:d3:0e:84:10:7c:c9:
                    c5:59:16:9d:ce:4d:2d:6f:b8:47:ef:b0:42:5b:8c:
                    7d:0f
                Exponent: 65537 (0x10001)
        X509v3 extensions:
            X509v3 Basic Constraints: 
                CA:FALSE
            X509v3 Subject Key Identifier: 
                2F:D5:FB:B7:BC:B3:1F:39:DF:F4:F0:CB:06:78:53:3D:C4:CA:F9:DF
            X509v3 Authority Key Identifier: 
                keyid:07:DF:C8:84:CE:C8:C4:8B:D2:82:93:81:20:1E:53:12:19:5A:5E:D8
                DirName:/CN=mtls-demo
                serial:41:37:C6:1B:55:14:9C:4B:10:F4:CF:98:BC:08:8C:58:7E:3F:D9:B5

            X509v3 Extended Key Usage: 
                TLS Web Client Authentication
            X509v3 Key Usage: 
                Digital Signature
    Signature Algorithm: sha256WithRSAEncryption
         03:25:ac:f9:97:22:38:4a:30:00:4b:6e:86:60:be:8d:33:97:
         97:ef:67:59:7b:ba:0e:7b:d2:17:67:2f:a8:7a:0a:5c:1b:e6:
         dc:d5:7e:f0:98:b7:e2:4b:d8:5a:64:a6:28:47:f3:34:d0:26:
         70:b4:d7:e3:37:6f:22:42:b5:56:fe:e4:2a:ca:cf:bb:e8:b3:
         c4:c7:4d:b4:e5:35:96:fa:0e:14:4f:c8:07:96:a1:bc:ac:71:
         1a:e5:71:67:b8:b0:48:9b:e9:82:a2:27:f1:fa:8a:7f:89:80:
         95:c6:4b:fa:f9:63:90:5e:d4:bb:af:fc:d4:40:ca:15:e3:c0:
         67:0f:33:49:16:94:ac:0c:d4:92:8b:75:12:33:3f:5c:20:ee:
         6e:1a:94:74:b2:25:f4:b5:53:87:4c:94:82:f0:b5:16:4f:d5:
         52:1c:9e:4f:54:25:c4:93:d6:35:de:b4:e2:e5:18:ee:f7:e2:
         ab:43:9e:73:77:82:98:18:d4:64:47:4c:d4:84:60:b9:ed:07:
         bb:7c:16:48:e0:97:c6:03:4b:4d:db:35:9d:2e:fb:6d:02:c3:
         02:bb:b8:cb:3b:ac:41:0f:e9:43:e8:ac:b0:84:4a:fa:e5:97:
         3e:47:3a:9f:f5:48:36:61:a7:5c:c9:32:6e:e9:a4:bf:63:a0:
         c5:ef:08:2a
-----BEGIN CERTIFICATE-----
MIID0zCCArugAwIBAgIQMrKXHFvS62hwzmzawVAkyDANBgkqhkiG9w0BAQsFADAU
MRIwEAYDVQQDDAltdGxzLWRlbW8wHhcNMjMwMjA2MTM1NDE5WhcNMjYwMTIxMTM1
NDE5WjCBkzELMAkGA1UEBhMCUk8xEjAQBgNVBAgMCUJ1Y2hhcmVzdDESMBAGA1UE
BwwJQnVjaGFyZXN0MQwwCgYDVQQKDANNVEExFjAUBgNVBAsMDU1hc3Rlci1DbGll
bnQxGDAWBgNVBAMMD210bHMtcHViLWNsaWVudDEcMBoGCSqGSIb3DQEJARYNY2xp
ZW50QG10YS5ybzCCASIwDQYJKoZIhvcNAQEBBQADggEPADCCAQoCggEBAOSxbBWB
gdqGvoz9P3gkW0/3j7kuJ1sJfWAiRBj+VGTosKr61I8ENbsw73fwqnK/SLhZCivp
0W7Twyga9mgqQdqHj9d8RU28QT9HbB7wSkTRQMvr/85UhtmccQCQ3vFGfGUNUZu0
CJqf5x4FEr5HQw9+VVJ/9ZYCs+X2Ezhn8EE1XsMoey5KeBImMff1WEDvcJzlOBC9
4sWcMfFXVyYcWKUrlZBCmN9VXA/PsGe9sp4h/uzSudQzhI6XKSleWxq8D2TGh7Xm
BVSIdfGQfi35jVyehUzIfgRDWcQ896OtFmmqJc805r7JYp5K0w6EEHzJxVkWnc5N
LW+4R++wQluMfQ8CAwEAAaOBoDCBnTAJBgNVHRMEAjAAMB0GA1UdDgQWBBQv1fu3
vLMfOd/08MsGeFM9xMr53zBPBgNVHSMESDBGgBQH38iEzsjEi9KCk4EgHlMSGVpe
2KEYpBYwFDESMBAGA1UEAwwJbXRscy1kZW1vghRBN8YbVRScSxD0z5i8CIxYfj/Z
tTATBgNVHSUEDDAKBggrBgEFBQcDAjALBgNVHQ8EBAMCB4AwDQYJKoZIhvcNAQEL
BQADggEBAAMlrPmXIjhKMABLboZgvo0zl5fvZ1l7ug570hdnL6h6Clwb5tzVfvCY
t+JL2FpkpihH8zTQJnC01+M3byJCtVb+5CrKz7vos8THTbTlNZb6DhRPyAeWobys
cRrlcWe4sEib6YKiJ/H6in+JgJXGS/r5Y5Be1Luv/NRAyhXjwGcPM0kWlKwM1JKL
dRIzP1wg7m4alHSyJfS1U4dMlILwtRZP1VIcnk9UJcST1jXetOLlGO734qtDnnN3
gpgY1GRHTNSEYLntB7t8Fkjgl8YDS03bNZ0u+20CwwK7uMs7rEEP6UPorLCESvrl
lz5HOp/1SDZhp1zJMm7ppL9joMXvCCo=
-----END CERTIFICATE-----
