Certificate:
    Data:
        Version: 3 (0x2)
        Serial Number:
            62:95:1f:69:15:5b:2a:22:18:6c:82:dd:de:7a:b1:86
        Signature Algorithm: sha256WithRSAEncryption
        Issuer: CN=mtls-demo
        Validity
            Not Before: Dec 28 19:31:53 2022 GMT
            Not After : Dec 12 19:31:53 2025 GMT
        Subject: C=RO, ST=Bucharest, L=Bucharest, O=MTA, OU=Master-Private, CN=mtls-demo/emailAddress=private@mta.ro
        Subject Public Key Info:
            Public Key Algorithm: rsaEncryption
                RSA Public-Key: (2048 bit)
                Modulus:
                    00:a0:f3:28:7b:de:fe:ec:90:aa:b4:6e:84:21:2c:
                    db:96:0f:ea:dc:76:e6:62:df:5a:88:b1:54:af:ec:
                    46:0e:1a:6b:94:91:68:0c:32:64:5e:f6:2b:00:f2:
                    4a:9f:6a:80:7c:4d:5e:32:09:a4:b3:4c:23:5a:9e:
                    f7:82:36:53:83:20:fc:0e:a6:1c:dd:2c:b8:52:83:
                    87:9b:ab:9e:4e:47:a2:48:9d:e3:7f:d0:65:8e:67:
                    05:c6:fe:ef:73:8e:39:43:41:65:47:0d:3c:fd:3c:
                    f0:a2:74:26:8e:b6:e1:a3:5c:94:15:ab:61:5a:d6:
                    18:0e:7e:91:df:4b:3f:4d:29:37:d1:a7:65:fc:b8:
                    88:dc:5d:8d:34:51:31:9f:00:54:87:b1:a9:1f:15:
                    86:db:71:a7:ce:87:17:a5:1d:23:ea:99:7f:a0:a9:
                    07:34:b5:86:c8:1c:52:89:bb:31:96:1b:bc:d3:85:
                    56:c3:d2:6f:fb:7e:d7:59:37:5f:c8:c4:77:bf:e5:
                    2b:b6:99:a8:0b:c0:7e:d9:39:23:4d:eb:d8:01:b8:
                    09:ab:a0:58:be:89:58:d8:3d:a4:52:ca:8b:d0:d2:
                    cf:ff:3a:c6:c8:b2:f2:23:d1:c0:72:bd:f3:64:3a:
                    d4:41:0b:d4:c8:46:95:6d:05:99:fe:0d:97:4c:40:
                    02:3b
                Exponent: 65537 (0x10001)
        X509v3 extensions:
            X509v3 Basic Constraints: 
                CA:FALSE
            X509v3 Subject Key Identifier: 
                9E:89:3B:25:61:B7:33:98:BB:04:A2:9D:B1:F9:53:70:88:4C:D6:BE
            X509v3 Authority Key Identifier: 
                keyid:07:DF:C8:84:CE:C8:C4:8B:D2:82:93:81:20:1E:53:12:19:5A:5E:D8
                DirName:/CN=mtls-demo
                serial:41:37:C6:1B:55:14:9C:4B:10:F4:CF:98:BC:08:8C:58:7E:3F:D9:B5

            X509v3 Extended Key Usage: 
                TLS Web Client Authentication
            X509v3 Key Usage: 
                Digital Signature
    Signature Algorithm: sha256WithRSAEncryption
         ba:9a:af:c1:88:de:e7:ee:83:a2:dd:5c:f4:4d:ea:91:42:c5:
         ce:7d:9f:ea:d3:47:c0:48:09:8c:6c:2c:bb:7d:4f:38:94:06:
         b3:ce:74:4d:58:f0:c0:2b:c3:c5:a7:57:40:b9:58:10:fa:43:
         47:d8:73:14:59:1d:27:ea:0c:bf:33:75:cd:d3:79:9c:fa:b8:
         c1:dd:0f:2b:9e:e1:9d:df:38:b9:b9:7c:f4:ec:bb:03:ed:86:
         6c:10:4f:f3:2f:32:dd:50:c2:ad:a4:6c:04:9f:50:31:e5:6e:
         ac:69:b2:c0:0a:00:fd:ca:ed:c1:0e:63:50:0b:bb:7e:e3:6e:
         7b:9d:e9:1a:15:da:f1:4c:3b:2f:e0:50:46:dc:d8:76:ca:6f:
         43:a7:c2:17:dd:11:1f:b1:83:29:50:b3:9d:91:dc:eb:23:f3:
         fe:48:01:dc:6a:b7:22:f1:e9:fc:c3:78:c0:92:17:a3:60:12:
         85:6a:94:d1:b7:31:df:b1:19:3a:1e:5f:c5:52:ee:e8:1e:a3:
         97:8a:6d:7a:5e:e5:db:12:29:06:de:89:b3:be:39:c0:70:a8:
         b2:8a:28:ab:39:59:d0:00:a5:6f:23:aa:87:11:9b:c0:25:ec:
         7e:74:11:f9:24:1d:61:92:91:40:ec:5f:54:a6:c7:7c:7c:ab:
         56:56:49:a3
-----BEGIN CERTIFICATE-----
MIIDzzCCAregAwIBAgIQYpUfaRVbKiIYbILd3nqxhjANBgkqhkiG9w0BAQsFADAU
MRIwEAYDVQQDDAltdGxzLWRlbW8wHhcNMjIxMjI4MTkzMTUzWhcNMjUxMjEyMTkz
MTUzWjCBjzELMAkGA1UEBhMCUk8xEjAQBgNVBAgMCUJ1Y2hhcmVzdDESMBAGA1UE
BwwJQnVjaGFyZXN0MQwwCgYDVQQKDANNVEExFzAVBgNVBAsMDk1hc3Rlci1Qcml2
YXRlMRIwEAYDVQQDDAltdGxzLWRlbW8xHTAbBgkqhkiG9w0BCQEWDnByaXZhdGVA
bXRhLnJvMIIBIjANBgkqhkiG9w0BAQEFAAOCAQ8AMIIBCgKCAQEAoPMoe97+7JCq
tG6EISzblg/q3HbmYt9aiLFUr+xGDhprlJFoDDJkXvYrAPJKn2qAfE1eMgmks0wj
Wp73gjZTgyD8DqYc3Sy4UoOHm6ueTkeiSJ3jf9BljmcFxv7vc445Q0FlRw08/Tzw
onQmjrbho1yUFathWtYYDn6R30s/TSk30adl/LiI3F2NNFExnwBUh7GpHxWG23Gn
zocXpR0j6pl/oKkHNLWGyBxSibsxlhu804VWw9Jv+37XWTdfyMR3v+UrtpmoC8B+
2TkjTevYAbgJq6BYvolY2D2kUsqL0NLP/zrGyLLyI9HAcr3zZDrUQQvUyEaVbQWZ
/g2XTEACOwIDAQABo4GgMIGdMAkGA1UdEwQCMAAwHQYDVR0OBBYEFJ6JOyVhtzOY
uwSinbH5U3CITNa+ME8GA1UdIwRIMEaAFAffyITOyMSL0oKTgSAeUxIZWl7YoRik
FjAUMRIwEAYDVQQDDAltdGxzLWRlbW+CFEE3xhtVFJxLEPTPmLwIjFh+P9m1MBMG
A1UdJQQMMAoGCCsGAQUFBwMCMAsGA1UdDwQEAwIHgDANBgkqhkiG9w0BAQsFAAOC
AQEAupqvwYje5+6Dot1c9E3qkULFzn2f6tNHwEgJjGwsu31POJQGs850TVjwwCvD
xadXQLlYEPpDR9hzFFkdJ+oMvzN1zdN5nPq4wd0PK57hnd84ubl89Oy7A+2GbBBP
8y8y3VDCraRsBJ9QMeVurGmywAoA/crtwQ5jUAu7fuNue53pGhXa8Uw7L+BQRtzY
dspvQ6fCF90RH7GDKVCznZHc6yPz/kgB3Gq3IvHp/MN4wJIXo2AShWqU0bcx37EZ
Oh5fxVLu6B6jl4ptel7l2xIpBt6Js745wHCosoooqzlZ0AClbyOqhxGbwCXsfnQR
+SQdYZKRQOxfVKbHfHyrVlZJow==
-----END CERTIFICATE-----
