Certificate:
    Data:
        Version: 3 (0x2)
        Serial Number:
            f5:ed:fe:a5:9b:82:80:fb:29:97:cb:05:17:9d:8c:59
        Signature Algorithm: sha256WithRSAEncryption
        Issuer: CN=mtls-demo
        Validity
            Not Before: Feb  6 13:54:30 2023 GMT
            Not After : Jan 21 13:54:30 2026 GMT
        Subject: C=RO, ST=Bucharest, L=Bucharest, O=MTA, OU=Master-Private, CN=mtls-private-client/emailAddress=private@mta.ro
        Subject Public Key Info:
            Public Key Algorithm: rsaEncryption
                RSA Public-Key: (2048 bit)
                Modulus:
                    00:b5:40:6c:7d:62:d9:f9:39:cd:33:a9:38:4e:b0:
                    52:0d:38:2f:4c:3b:27:f6:58:31:98:f4:67:d4:24:
                    32:f0:df:8e:5f:db:bd:b0:5b:88:69:91:c4:44:2e:
                    6a:91:1a:9b:f3:97:8e:e5:35:8f:72:3b:46:ce:9a:
                    be:26:5b:ae:ae:3f:14:5a:99:cc:7f:5c:41:92:2d:
                    39:b9:4e:f2:b8:d8:ed:8c:20:f3:ea:9c:cf:32:7d:
                    b4:0e:ff:a4:81:71:b3:21:0e:2b:b6:ac:5a:c3:76:
                    b5:6f:95:ef:02:1b:9d:d2:e4:5d:84:68:6b:97:e1:
                    4e:2b:a2:68:1c:fb:ee:95:9a:9c:f2:8f:08:28:6d:
                    d8:61:e6:c0:e0:19:27:ac:a7:b7:c3:6b:0a:09:24:
                    60:71:b1:19:87:db:4e:cb:90:2d:32:a0:05:7d:8e:
                    f8:1b:bc:7c:d4:41:be:ef:e0:fb:35:a5:da:a1:d2:
                    59:f1:ac:e8:f0:25:00:cb:02:2d:99:11:10:22:0b:
                    81:32:ac:c8:69:eb:b7:a9:d0:d6:b3:ef:89:5b:96:
                    47:0c:7a:89:84:23:00:d9:85:28:c2:96:de:df:e2:
                    1f:06:97:5d:c7:09:bd:b2:96:72:45:9d:ea:99:fe:
                    12:ad:e3:4b:94:a8:1d:e0:d8:ed:a2:d5:88:4e:87:
                    53:cd
                Exponent: 65537 (0x10001)
        X509v3 extensions:
            X509v3 Basic Constraints: 
                CA:FALSE
            X509v3 Subject Key Identifier: 
                5D:D2:B7:EB:CC:1D:00:AB:9A:57:5E:9D:5F:2C:9C:A0:9A:97:B4:28
            X509v3 Authority Key Identifier: 
                keyid:07:DF:C8:84:CE:C8:C4:8B:D2:82:93:81:20:1E:53:12:19:5A:5E:D8
                DirName:/CN=mtls-demo
                serial:41:37:C6:1B:55:14:9C:4B:10:F4:CF:98:BC:08:8C:58:7E:3F:D9:B5

            X509v3 Extended Key Usage: 
                TLS Web Client Authentication
            X509v3 Key Usage: 
                Digital Signature
    Signature Algorithm: sha256WithRSAEncryption
         56:85:82:fb:65:d3:8c:22:8f:79:94:37:d7:4b:44:13:1e:da:
         ad:96:3d:71:f7:7d:df:6c:15:cc:71:77:4b:01:18:33:c9:be:
         d0:f1:a8:7d:a4:ef:12:43:f8:8c:84:dc:2e:c0:69:e7:ac:64:
         bb:6e:0b:52:57:f4:dd:3f:6b:d6:6a:52:d8:f4:29:ef:16:7e:
         bb:7c:45:fa:27:53:72:53:35:88:c3:ef:40:ae:e3:d7:79:43:
         01:1e:2a:33:34:3e:f7:2b:19:99:eb:7c:cf:c7:37:bd:0e:85:
         c4:b5:60:73:61:0c:3e:cd:de:6c:e6:43:f9:c7:1a:71:5e:be:
         32:91:96:d2:ca:54:2f:8a:8e:23:1c:10:db:09:e7:bf:cf:57:
         23:7b:48:23:b4:55:64:21:ef:ec:8a:94:ca:a6:51:c7:5d:28:
         cc:de:91:81:f9:c2:5b:d9:4d:ea:5c:fa:0d:1f:13:bd:6e:8e:
         e6:1e:9d:d4:3d:8c:d8:df:40:90:b7:9e:d1:31:69:4b:8c:17:
         76:d9:44:95:23:02:a0:9a:55:24:ea:bf:e0:bb:06:0f:d4:d8:
         47:dd:36:e0:22:fe:a5:f5:57:61:9a:92:1a:10:51:f8:bd:b0:
         54:61:2c:c5:da:ef:5c:d0:a0:62:4b:3e:24:87:d7:4a:77:d8:
         70:39:f9:11
-----BEGIN CERTIFICATE-----
MIID2jCCAsKgAwIBAgIRAPXt/qWbgoD7KZfLBRedjFkwDQYJKoZIhvcNAQELBQAw
FDESMBAGA1UEAwwJbXRscy1kZW1vMB4XDTIzMDIwNjEzNTQzMFoXDTI2MDEyMTEz
NTQzMFowgZkxCzAJBgNVBAYTAlJPMRIwEAYDVQQIDAlCdWNoYXJlc3QxEjAQBgNV
BAcMCUJ1Y2hhcmVzdDEMMAoGA1UECgwDTVRBMRcwFQYDVQQLDA5NYXN0ZXItUHJp
dmF0ZTEcMBoGA1UEAwwTbXRscy1wcml2YXRlLWNsaWVudDEdMBsGCSqGSIb3DQEJ
ARYOcHJpdmF0ZUBtdGEucm8wggEiMA0GCSqGSIb3DQEBAQUAA4IBDwAwggEKAoIB
AQC1QGx9Ytn5Oc0zqThOsFINOC9MOyf2WDGY9GfUJDLw345f272wW4hpkcRELmqR
Gpvzl47lNY9yO0bOmr4mW66uPxRamcx/XEGSLTm5TvK42O2MIPPqnM8yfbQO/6SB
cbMhDiu2rFrDdrVvle8CG53S5F2EaGuX4U4romgc++6Vmpzyjwgobdhh5sDgGSes
p7fDawoJJGBxsRmH207LkC0yoAV9jvgbvHzUQb7v4Ps1pdqh0lnxrOjwJQDLAi2Z
ERAiC4EyrMhp67ep0Naz74lblkcMeomEIwDZhSjClt7f4h8Gl13HCb2ylnJFneqZ
/hKt40uUqB3g2O2i1YhOh1PNAgMBAAGjgaAwgZ0wCQYDVR0TBAIwADAdBgNVHQ4E
FgQUXdK368wdAKuaV16dXyycoJqXtCgwTwYDVR0jBEgwRoAUB9/IhM7IxIvSgpOB
IB5TEhlaXtihGKQWMBQxEjAQBgNVBAMMCW10bHMtZGVtb4IUQTfGG1UUnEsQ9M+Y
vAiMWH4/2bUwEwYDVR0lBAwwCgYIKwYBBQUHAwIwCwYDVR0PBAQDAgeAMA0GCSqG
SIb3DQEBCwUAA4IBAQBWhYL7ZdOMIo95lDfXS0QTHtqtlj1x933fbBXMcXdLARgz
yb7Q8ah9pO8SQ/iMhNwuwGnnrGS7bgtSV/TdP2vWalLY9CnvFn67fEX6J1NyUzWI
w+9AruPXeUMBHiozND73KxmZ63zPxze9DoXEtWBzYQw+zd5s5kP5xxpxXr4ykZbS
ylQvio4jHBDbCee/z1cje0gjtFVkIe/sipTKplHHXSjM3pGB+cJb2U3qXPoNHxO9
bo7mHp3UPYzY30CQt57RMWlLjBd22USVIwKgmlUk6r/guwYP1NhH3TbgIv6l9Vdh
mpIaEFH4vbBUYSzF2u9c0KBiSz4kh9dKd9hwOfkR
-----END CERTIFICATE-----
