Certificate:
    Data:
        Version: 3 (0x2)
        Serial Number:
            1f:c3:58:6a:75:12:13:3d:24:cf:8d:8a:65:34:8c:34
        Signature Algorithm: sha256WithRSAEncryption
        Issuer: CN=mtls-demo
        Validity
            Not Before: Dec 28 19:35:13 2022 GMT
            Not After : Dec 12 19:35:13 2025 GMT
        Subject: C=RO, ST=Bucharest, L=Bucharest, O=MTA, OU=Master-Other, CN=mtls-demo/emailAddress=revoked@mta.ro
        Subject Public Key Info:
            Public Key Algorithm: rsaEncryption
                RSA Public-Key: (2048 bit)
                Modulus:
                    00:d2:77:eb:58:88:53:f9:9f:c6:72:57:d2:8a:8c:
                    42:a0:6f:4b:dd:ec:25:2e:fb:36:c0:da:a3:df:ad:
                    dc:3d:00:a0:1e:75:14:e7:1d:2f:ac:fb:90:18:b5:
                    a0:39:8f:f0:78:a2:15:2f:fb:30:44:a4:99:9b:63:
                    3c:8f:8e:ab:28:ae:98:a5:83:69:e6:c7:9a:e5:bd:
                    4e:77:77:8c:a0:62:7c:c6:a6:e8:07:ea:42:d0:69:
                    1a:c3:2c:bc:af:14:0f:ae:45:8a:67:ed:9a:06:56:
                    4b:74:ac:01:a2:6c:b9:d4:f1:4b:bd:0b:d8:ba:0d:
                    50:13:66:b4:32:e6:62:5e:86:ab:d9:a1:a8:cf:0d:
                    9f:2b:dd:14:99:6c:76:82:46:93:b1:70:e3:99:72:
                    ce:1a:d4:01:2a:53:74:de:d9:bc:76:79:c3:50:92:
                    4f:b5:2a:3b:f6:c9:43:7d:f5:c1:43:ef:ea:ac:0a:
                    c5:84:fa:1c:eb:d4:db:ba:59:bc:2d:ab:c3:98:af:
                    99:df:e2:a8:58:ac:84:bf:cd:c1:7f:48:c9:3e:36:
                    25:b9:d5:13:29:ea:67:e9:7a:50:e8:c1:43:55:42:
                    05:bc:b5:c3:c6:c7:4d:c5:94:31:49:ce:e8:01:5b:
                    9d:1a:34:6a:f1:60:2d:16:34:d4:48:21:9f:cd:b3:
                    ee:31
                Exponent: 65537 (0x10001)
        X509v3 extensions:
            X509v3 Basic Constraints: 
                CA:FALSE
            X509v3 Subject Key Identifier: 
                2F:48:A5:E0:A9:67:51:8A:D9:C8:87:E6:CC:B7:06:B9:6E:7D:05:FE
            X509v3 Authority Key Identifier: 
                keyid:07:DF:C8:84:CE:C8:C4:8B:D2:82:93:81:20:1E:53:12:19:5A:5E:D8
                DirName:/CN=mtls-demo
                serial:41:37:C6:1B:55:14:9C:4B:10:F4:CF:98:BC:08:8C:58:7E:3F:D9:B5

            X509v3 Extended Key Usage: 
                TLS Web Client Authentication
            X509v3 Key Usage: 
                Digital Signature
    Signature Algorithm: sha256WithRSAEncryption
         62:0a:23:12:86:ed:bd:a2:b0:54:44:af:6d:c4:12:6f:17:c8:
         56:1a:ad:24:eb:d2:a4:6d:a6:70:9e:01:96:d4:dc:bd:ca:a5:
         8d:f5:bc:fb:dc:6b:8e:8d:c6:11:d3:ef:0e:e1:29:47:e8:6d:
         26:13:5c:35:87:40:cd:3d:38:77:06:52:47:55:40:17:fb:98:
         db:16:3d:fe:09:a4:0e:0e:d7:3e:83:80:e6:f6:25:02:38:6c:
         fb:34:a1:a7:fa:02:44:b8:93:52:da:e3:0c:0e:67:3e:2a:05:
         16:0b:f3:2c:c8:b0:05:01:80:6d:89:f8:fb:8a:16:02:00:62:
         4c:d1:1c:81:f8:20:86:ef:8b:eb:f0:f0:aa:a6:5d:87:d1:d8:
         04:77:5f:56:b0:9c:2c:f4:ff:b2:ff:21:78:b3:8f:74:1a:06:
         fa:9f:a3:18:44:cc:82:fd:f1:89:98:4f:fb:ac:97:d3:6e:34:
         61:25:03:35:df:63:75:13:c8:52:e9:23:a3:a0:49:f7:76:f6:
         02:11:d6:f3:ab:b3:6c:dd:22:2a:8f:d8:61:fb:b7:19:98:bc:
         0f:bb:fb:54:37:75:56:63:5d:3e:8b:53:8c:5b:db:1b:71:6f:
         74:50:66:af:37:d4:90:05:b8:af:18:56:d4:de:f0:d4:70:b0:
         a0:ed:0b:8b
-----BEGIN CERTIFICATE-----
MIIDzTCCArWgAwIBAgIQH8NYanUSEz0kz42KZTSMNDANBgkqhkiG9w0BAQsFADAU
MRIwEAYDVQQDDAltdGxzLWRlbW8wHhcNMjIxMjI4MTkzNTEzWhcNMjUxMjEyMTkz
NTEzWjCBjTELMAkGA1UEBhMCUk8xEjAQBgNVBAgMCUJ1Y2hhcmVzdDESMBAGA1UE
BwwJQnVjaGFyZXN0MQwwCgYDVQQKDANNVEExFTATBgNVBAsMDE1hc3Rlci1PdGhl
cjESMBAGA1UEAwwJbXRscy1kZW1vMR0wGwYJKoZIhvcNAQkBFg5yZXZva2VkQG10
YS5ybzCCASIwDQYJKoZIhvcNAQEBBQADggEPADCCAQoCggEBANJ361iIU/mfxnJX
0oqMQqBvS93sJS77NsDao9+t3D0AoB51FOcdL6z7kBi1oDmP8HiiFS/7MESkmZtj
PI+OqyiumKWDaebHmuW9Tnd3jKBifMam6AfqQtBpGsMsvK8UD65FimftmgZWS3Ss
AaJsudTxS70L2LoNUBNmtDLmYl6Gq9mhqM8NnyvdFJlsdoJGk7Fw45lyzhrUASpT
dN7ZvHZ5w1CST7UqO/bJQ331wUPv6qwKxYT6HOvU27pZvC2rw5ivmd/iqFishL/N
wX9IyT42JbnVEynqZ+l6UOjBQ1VCBby1w8bHTcWUMUnO6AFbnRo0avFgLRY01Egh
n82z7jECAwEAAaOBoDCBnTAJBgNVHRMEAjAAMB0GA1UdDgQWBBQvSKXgqWdRitnI
h+bMtwa5bn0F/jBPBgNVHSMESDBGgBQH38iEzsjEi9KCk4EgHlMSGVpe2KEYpBYw
FDESMBAGA1UEAwwJbXRscy1kZW1vghRBN8YbVRScSxD0z5i8CIxYfj/ZtTATBgNV
HSUEDDAKBggrBgEFBQcDAjALBgNVHQ8EBAMCB4AwDQYJKoZIhvcNAQELBQADggEB
AGIKIxKG7b2isFREr23EEm8XyFYarSTr0qRtpnCeAZbU3L3KpY31vPvca46NxhHT
7w7hKUfobSYTXDWHQM09OHcGUkdVQBf7mNsWPf4JpA4O1z6DgOb2JQI4bPs0oaf6
AkS4k1La4wwOZz4qBRYL8yzIsAUBgG2J+PuKFgIAYkzRHIH4IIbvi+vw8KqmXYfR
2AR3X1awnCz0/7L/IXizj3QaBvqfoxhEzIL98YmYT/usl9NuNGElAzXfY3UTyFLp
I6OgSfd29gIR1vOrs2zdIiqP2GH7txmYvA+7+1Q3dVZjXT6LU4xb2xtxb3RQZq83
1JAFuK8YVtTe8NRwsKDtC4s=
-----END CERTIFICATE-----
