Certificate:
    Data:
        Version: 3 (0x2)
        Serial Number:
            02:7a:d3:2e:29:0f:72:f3:6c:81:9c:2f:81:36:01:79
        Signature Algorithm: sha256WithRSAEncryption
        Issuer: CN=mtls-demo
        Validity
            Not Before: Feb  6 13:55:01 2023 GMT
            Not After : Jan 21 13:55:01 2026 GMT
        Subject: C=RO, ST=Bucharest, L=Bucharest, O=MTA, OU=Master-Other, CN=mtls-revoked-client/emailAddress=revoked@mta.ro
        Subject Public Key Info:
            Public Key Algorithm: rsaEncryption
                RSA Public-Key: (2048 bit)
                Modulus:
                    00:cd:0d:36:00:77:a1:0f:1a:bb:4c:80:40:d9:21:
                    6e:5f:54:fa:ff:6d:d7:5d:85:24:fb:d1:74:57:9d:
                    10:b4:40:44:78:97:1a:85:13:9a:91:c3:5e:77:37:
                    c7:78:b3:6c:ab:e3:ee:70:9a:8a:d8:76:61:bf:c7:
                    0d:9d:f6:bf:f0:07:3c:68:d8:e9:b1:e5:6c:4a:91:
                    1e:95:53:1b:86:0d:f3:39:8e:96:e6:21:90:89:d9:
                    21:d5:9e:ba:09:52:27:4d:59:27:8f:5d:55:2a:27:
                    c3:64:a8:d1:00:9f:4d:86:7f:f9:94:90:54:a1:52:
                    9b:cf:31:88:d0:0a:87:c5:db:b9:46:c1:96:bf:0b:
                    f0:4e:a2:7f:13:1a:54:83:57:ee:65:f5:55:64:3d:
                    a9:9e:5a:a6:0c:55:11:32:46:ac:a2:e8:54:15:08:
                    1c:0b:b3:53:d4:07:a4:10:81:89:4b:f2:1f:e1:29:
                    aa:ad:2f:ab:ae:45:c3:e7:0c:86:43:b1:1e:4f:d6:
                    33:2d:ed:51:f9:6f:e7:33:70:49:06:d7:c2:a0:dd:
                    48:e9:32:ee:26:f5:74:19:d4:14:fb:16:16:ab:a5:
                    21:94:a5:c0:1a:e2:27:92:a6:63:ae:48:7a:69:4b:
                    7b:f6:1b:94:2d:5e:67:86:0a:01:28:4a:f4:f2:be:
                    dd:27
                Exponent: 65537 (0x10001)
        X509v3 extensions:
            X509v3 Basic Constraints: 
                CA:FALSE
            X509v3 Subject Key Identifier: 
                92:12:88:61:2B:44:AE:B4:43:64:17:6D:ED:1B:F1:28:2B:00:26:B5
            X509v3 Authority Key Identifier: 
                keyid:07:DF:C8:84:CE:C8:C4:8B:D2:82:93:81:20:1E:53:12:19:5A:5E:D8
                DirName:/CN=mtls-demo
                serial:41:37:C6:1B:55:14:9C:4B:10:F4:CF:98:BC:08:8C:58:7E:3F:D9:B5

            X509v3 Extended Key Usage: 
                TLS Web Client Authentication
            X509v3 Key Usage: 
                Digital Signature
    Signature Algorithm: sha256WithRSAEncryption
         33:82:a9:03:ae:ac:af:39:50:20:ef:d2:85:97:55:a1:10:ca:
         77:46:43:10:1b:a0:84:15:94:91:f8:96:5e:5d:93:8e:fe:16:
         9d:3a:03:40:ec:51:e2:4f:34:cf:07:92:e7:90:63:b0:3f:95:
         27:b5:a1:1a:c3:1a:b8:48:88:aa:d8:54:fb:a3:4a:f5:6d:cc:
         4a:6e:87:6a:db:86:dd:58:c4:a1:ba:d3:ee:e8:2a:da:6a:b3:
         bf:0c:43:d0:45:96:d8:20:d7:14:92:46:1c:24:a7:e6:3d:e8:
         b4:b4:a6:94:01:0a:48:bc:26:1a:b3:36:08:25:a5:04:ab:f7:
         d4:3b:6d:ed:11:3a:fe:55:ce:1d:90:3e:6d:5a:64:1f:0e:65:
         6a:c8:33:3c:64:eb:88:5d:7f:1b:3a:eb:06:59:07:15:31:88:
         63:13:9d:72:98:f5:fc:02:c6:cd:35:2b:43:70:4d:d4:75:c6:
         44:a7:d3:c2:b8:cb:3c:3f:7c:01:70:bf:c2:92:f9:dd:b0:b4:
         5c:0a:9b:1c:4c:60:71:21:9a:f7:d6:9b:29:24:60:c0:3b:30:
         7d:e4:8d:01:6d:2a:dd:de:55:9b:ff:fd:4c:32:f3:8d:58:cf:
         fd:aa:ff:af:10:5f:03:ce:21:2a:88:77:f3:6b:fc:47:e7:e4:
         14:f4:87:de
-----BEGIN CERTIFICATE-----
MIID1zCCAr+gAwIBAgIQAnrTLikPcvNsgZwvgTYBeTANBgkqhkiG9w0BAQsFADAU
MRIwEAYDVQQDDAltdGxzLWRlbW8wHhcNMjMwMjA2MTM1NTAxWhcNMjYwMTIxMTM1
NTAxWjCBlzELMAkGA1UEBhMCUk8xEjAQBgNVBAgMCUJ1Y2hhcmVzdDESMBAGA1UE
BwwJQnVjaGFyZXN0MQwwCgYDVQQKDANNVEExFTATBgNVBAsMDE1hc3Rlci1PdGhl
cjEcMBoGA1UEAwwTbXRscy1yZXZva2VkLWNsaWVudDEdMBsGCSqGSIb3DQEJARYO
cmV2b2tlZEBtdGEucm8wggEiMA0GCSqGSIb3DQEBAQUAA4IBDwAwggEKAoIBAQDN
DTYAd6EPGrtMgEDZIW5fVPr/bdddhST70XRXnRC0QER4lxqFE5qRw153N8d4s2yr
4+5wmorYdmG/xw2d9r/wBzxo2Omx5WxKkR6VUxuGDfM5jpbmIZCJ2SHVnroJUidN
WSePXVUqJ8NkqNEAn02Gf/mUkFShUpvPMYjQCofF27lGwZa/C/BOon8TGlSDV+5l
9VVkPameWqYMVREyRqyi6FQVCBwLs1PUB6QQgYlL8h/hKaqtL6uuRcPnDIZDsR5P
1jMt7VH5b+czcEkG18Kg3UjpMu4m9XQZ1BT7FharpSGUpcAa4ieSpmOuSHppS3v2
G5QtXmeGCgEoSvTyvt0nAgMBAAGjgaAwgZ0wCQYDVR0TBAIwADAdBgNVHQ4EFgQU
khKIYStErrRDZBdt7RvxKCsAJrUwTwYDVR0jBEgwRoAUB9/IhM7IxIvSgpOBIB5T
EhlaXtihGKQWMBQxEjAQBgNVBAMMCW10bHMtZGVtb4IUQTfGG1UUnEsQ9M+YvAiM
WH4/2bUwEwYDVR0lBAwwCgYIKwYBBQUHAwIwCwYDVR0PBAQDAgeAMA0GCSqGSIb3
DQEBCwUAA4IBAQAzgqkDrqyvOVAg79KFl1WhEMp3RkMQG6CEFZSR+JZeXZOO/had
OgNA7FHiTzTPB5LnkGOwP5UntaEawxq4SIiq2FT7o0r1bcxKbodq24bdWMShutPu
6CraarO/DEPQRZbYINcUkkYcJKfmPei0tKaUAQpIvCYaszYIJaUEq/fUO23tETr+
Vc4dkD5tWmQfDmVqyDM8ZOuIXX8bOusGWQcVMYhjE51ymPX8AsbNNStDcE3UdcZE
p9PCuMs8P3wBcL/CkvndsLRcCpscTGBxIZr31pspJGDAOzB95I0BbSrd3lWb//1M
MvONWM/9qv+vEF8DziEqiHfza/xH5+QU9Ife
-----END CERTIFICATE-----
