Certificate:
    Data:
        Version: 3 (0x2)
        Serial Number:
            cd:b3:c9:42:96:e4:28:69:f5:f8:2a:5a:4a:fb:74:61
        Signature Algorithm: sha256WithRSAEncryption
        Issuer: CN=mtls-demo
        Validity
            Not Before: Dec 24 18:38:01 2022 GMT
            Not After : Dec  8 18:38:01 2025 GMT
        Subject: C=RO, ST=Bucharest, L=Bucharest, O=MTA, OU=Master-Worker, CN=mtls-demo
        Subject Public Key Info:
            Public Key Algorithm: rsaEncryption
                RSA Public-Key: (2048 bit)
                Modulus:
                    00:cb:a8:08:2f:f3:05:8a:09:f5:d6:27:64:f8:d6:
                    1b:d2:0a:17:d8:5e:5a:ce:e4:a5:6b:2d:14:db:1b:
                    d5:cb:1b:0e:79:d2:43:61:b7:de:be:50:65:6f:98:
                    5e:c3:22:63:b6:e8:ec:83:8f:33:96:0e:78:66:60:
                    63:a6:e7:62:e4:d9:0c:83:9d:d3:48:ad:e8:3f:af:
                    1f:5a:6a:81:60:62:18:93:42:b0:ef:6a:f1:64:19:
                    6a:fa:db:4a:d6:e9:7c:0c:27:58:b3:f5:a2:c1:25:
                    a7:07:f9:b6:ee:15:a3:81:c7:a7:5e:35:d5:7d:92:
                    80:bf:40:0e:98:46:bf:c0:6e:0d:4a:7b:d5:0a:54:
                    ac:7a:61:70:1e:cd:e5:1f:a8:e0:1c:3b:93:14:96:
                    4a:48:cc:44:03:72:ce:62:ac:74:74:29:85:5e:12:
                    72:c9:b3:3e:2f:87:47:08:fd:82:24:88:54:b5:6d:
                    fe:28:5c:84:43:64:de:ab:36:be:29:fb:75:29:a0:
                    14:8f:0a:56:1a:e8:e0:94:d4:bd:6c:72:f5:6c:8a:
                    b1:6b:34:14:a9:71:6f:f3:55:c9:35:9a:38:d0:b1:
                    fe:90:a1:00:9b:b6:8d:9e:c1:ea:22:60:2a:5f:ac:
                    3a:e2:48:75:1c:27:cc:6a:5b:c0:f1:33:91:9e:13:
                    02:a9
                Exponent: 65537 (0x10001)
        X509v3 extensions:
            X509v3 Basic Constraints: 
                CA:FALSE
            X509v3 Subject Key Identifier: 
                BA:DA:B6:35:30:D8:7E:BF:D8:31:4C:D2:1B:33:EC:D6:84:F9:26:03
            X509v3 Authority Key Identifier: 
                keyid:07:DF:C8:84:CE:C8:C4:8B:D2:82:93:81:20:1E:53:12:19:5A:5E:D8
                DirName:/CN=mtls-demo
                serial:41:37:C6:1B:55:14:9C:4B:10:F4:CF:98:BC:08:8C:58:7E:3F:D9:B5

            X509v3 Extended Key Usage: 
                TLS Web Client Authentication
            X509v3 Key Usage: 
                Digital Signature
    Signature Algorithm: sha256WithRSAEncryption
         8c:70:d6:47:40:3a:9b:f8:8c:f4:1e:22:0c:04:a9:00:a4:37:
         3c:99:78:bd:ce:4f:fe:1b:14:db:af:35:09:66:78:38:2f:e6:
         11:bc:74:32:f7:ef:0c:97:c4:09:57:67:f5:72:89:25:cc:10:
         df:09:67:20:a4:b0:9e:12:28:75:72:15:ec:4a:5a:46:ab:15:
         21:4b:03:a7:17:e4:b2:89:e6:79:e5:e2:ab:9f:74:e3:0e:78:
         ec:ff:f8:89:1d:4a:ac:4a:2e:b4:13:02:37:42:6a:bf:72:4f:
         b9:3d:9b:bf:c3:f7:b1:29:55:d8:40:2e:52:e9:64:21:f4:de:
         12:78:82:01:18:b0:c2:38:8f:41:bb:a2:1f:27:f0:42:33:6c:
         d3:a1:0a:42:f6:d2:24:45:bd:24:e0:b9:b0:c7:26:ee:fc:73:
         c2:ee:e9:87:fe:78:c4:f1:e2:eb:d9:ab:56:90:e9:51:e2:b9:
         3c:95:fb:0b:11:40:10:03:32:60:df:6e:ad:c2:25:77:be:e4:
         7d:40:8d:5f:bc:fd:fe:22:17:73:91:78:3d:ee:1d:bc:96:cd:
         77:db:74:11:37:c3:2b:6c:7d:aa:aa:68:00:ff:a8:0e:93:7b:
         09:73:b8:f9:ab:00:29:28:27:bc:c2:47:7c:64:7f:22:a2:80:
         ef:15:28:e1
-----BEGIN CERTIFICATE-----
MIIDrzCCApegAwIBAgIRAM2zyUKW5Chp9fgqWkr7dGEwDQYJKoZIhvcNAQELBQAw
FDESMBAGA1UEAwwJbXRscy1kZW1vMB4XDTIyMTIyNDE4MzgwMVoXDTI1MTIwODE4
MzgwMVowbzELMAkGA1UEBhMCUk8xEjAQBgNVBAgMCUJ1Y2hhcmVzdDESMBAGA1UE
BwwJQnVjaGFyZXN0MQwwCgYDVQQKDANNVEExFjAUBgNVBAsMDU1hc3Rlci1Xb3Jr
ZXIxEjAQBgNVBAMMCW10bHMtZGVtbzCCASIwDQYJKoZIhvcNAQEBBQADggEPADCC
AQoCggEBAMuoCC/zBYoJ9dYnZPjWG9IKF9heWs7kpWstFNsb1csbDnnSQ2G33r5Q
ZW+YXsMiY7bo7IOPM5YOeGZgY6bnYuTZDIOd00it6D+vH1pqgWBiGJNCsO9q8WQZ
avrbStbpfAwnWLP1osElpwf5tu4Vo4HHp1411X2SgL9ADphGv8BuDUp71QpUrHph
cB7N5R+o4Bw7kxSWSkjMRANyzmKsdHQphV4ScsmzPi+HRwj9giSIVLVt/ihchENk
3qs2vin7dSmgFI8KVhro4JTUvWxy9WyKsWs0FKlxb/NVyTWaONCx/pChAJu2jZ7B
6iJgKl+sOuJIdRwnzGpbwPEzkZ4TAqkCAwEAAaOBoDCBnTAJBgNVHRMEAjAAMB0G
A1UdDgQWBBS62rY1MNh+v9gxTNIbM+zWhPkmAzBPBgNVHSMESDBGgBQH38iEzsjE
i9KCk4EgHlMSGVpe2KEYpBYwFDESMBAGA1UEAwwJbXRscy1kZW1vghRBN8YbVRSc
SxD0z5i8CIxYfj/ZtTATBgNVHSUEDDAKBggrBgEFBQcDAjALBgNVHQ8EBAMCB4Aw
DQYJKoZIhvcNAQELBQADggEBAIxw1kdAOpv4jPQeIgwEqQCkNzyZeL3OT/4bFNuv
NQlmeDgv5hG8dDL37wyXxAlXZ/VyiSXMEN8JZyCksJ4SKHVyFexKWkarFSFLA6cX
5LKJ5nnl4qufdOMOeOz/+IkdSqxKLrQTAjdCar9yT7k9m7/D97EpVdhALlLpZCH0
3hJ4ggEYsMI4j0G7oh8n8EIzbNOhCkL20iRFvSTgubDHJu78c8Lu6Yf+eMTx4uvZ
q1aQ6VHiuTyV+wsRQBADMmDfbq3CJXe+5H1AjV+8/f4iF3OReD3uHbyWzXfbdBE3
wytsfaqqaAD/qA6TewlzuPmrACkoJ7zCR3xkfyKigO8VKOE=
-----END CERTIFICATE-----
