Certificate:
    Data:
        Version: 3 (0x2)
        Serial Number:
            75:94:5e:1f:90:29:f2:9e:d4:3c:7e:6b:21:2e:a0:5a
        Signature Algorithm: sha256WithRSAEncryption
        Issuer: CN=mtls-demo
        Validity
            Not Before: Dec 24 18:29:51 2022 GMT
            Not After : Dec  8 18:29:51 2025 GMT
        Subject: C=RO, ST=Bucharest, L=Bucharest, O=MTA, OU=Master-Server, CN=mtls-demo/emailAddress=server@mta.ro
        Subject Public Key Info:
            Public Key Algorithm: rsaEncryption
                RSA Public-Key: (2048 bit)
                Modulus:
                    00:e0:45:18:bd:cc:e0:6f:e9:06:2e:d2:9b:0d:b9:
                    8c:55:1d:f8:77:cc:e1:6e:94:c7:1f:99:75:be:d8:
                    38:25:ea:32:d8:22:50:80:e6:ff:d5:4e:9a:b3:02:
                    85:95:36:f4:de:b4:c3:97:2c:1b:2b:2f:66:29:36:
                    e3:aa:d0:82:c2:5c:10:f1:e8:48:9f:f0:b4:ce:8a:
                    77:e2:93:c5:da:bf:fb:2c:66:67:b8:77:58:67:af:
                    de:37:50:33:0c:18:b4:b3:0c:cc:b6:ec:fe:80:30:
                    47:e6:4c:c1:89:8f:0c:0f:60:e1:e3:b6:51:20:cf:
                    52:79:eb:53:60:39:89:21:7e:8f:18:0c:f3:db:eb:
                    7e:39:03:03:c1:95:04:4f:1c:52:62:f2:4c:48:a8:
                    8d:b4:1b:53:c0:58:6f:c4:c8:0a:c5:23:e6:a2:e3:
                    6f:88:14:74:f3:ee:31:ef:a8:d7:be:03:7a:b0:1b:
                    34:55:66:17:51:f8:93:3c:c0:41:b0:d2:54:e8:90:
                    a8:f0:ca:f2:4a:5a:3d:81:15:04:fb:10:85:75:de:
                    2a:10:58:8e:63:71:3d:eb:3f:3c:9d:a4:45:47:70:
                    5e:48:e5:6c:a5:44:b8:40:71:4d:31:07:5f:7f:46:
                    23:41:55:60:5e:90:4e:6e:06:d3:e4:78:70:e9:3e:
                    2a:87
                Exponent: 65537 (0x10001)
        X509v3 extensions:
            X509v3 Basic Constraints: 
                CA:FALSE
            X509v3 Subject Key Identifier: 
                9B:06:7C:91:D0:18:B2:13:85:C3:DC:79:A0:4C:2D:27:AA:05:28:C7
            X509v3 Authority Key Identifier: 
                keyid:07:DF:C8:84:CE:C8:C4:8B:D2:82:93:81:20:1E:53:12:19:5A:5E:D8
                DirName:/CN=mtls-demo
                serial:41:37:C6:1B:55:14:9C:4B:10:F4:CF:98:BC:08:8C:58:7E:3F:D9:B5

            X509v3 Extended Key Usage: 
                TLS Web Server Authentication
            X509v3 Key Usage: 
                Digital Signature, Key Encipherment
            X509v3 Subject Alternative Name: 
                DNS:mtls-demo
    Signature Algorithm: sha256WithRSAEncryption
         1b:24:b8:59:4d:f6:d8:7d:fe:12:8b:ed:e0:b5:15:02:d2:af:
         c3:eb:a3:06:d7:2e:fd:cb:ac:46:19:54:ec:01:f0:1e:19:87:
         13:99:d6:2a:fa:62:c6:72:03:33:f6:e0:f8:79:34:78:6b:db:
         ec:da:7d:f3:48:c0:d6:5e:33:4f:9e:bf:4a:27:4e:bc:8b:cd:
         60:0e:ba:36:73:bd:13:c2:68:34:2a:b7:9c:56:60:34:09:3e:
         29:4a:64:d3:17:f9:c6:08:9f:1b:e0:95:a2:18:02:17:68:9b:
         89:02:b8:61:ed:f6:11:26:26:4c:06:76:82:27:06:a6:ef:0b:
         2c:e0:46:59:e2:af:f4:b9:3c:55:48:c9:a2:9e:04:1a:a9:2b:
         f2:3c:c0:46:cb:ae:df:84:55:f4:f7:a5:d5:0b:cf:0c:b1:ff:
         50:9c:38:3a:33:0e:90:20:d7:0f:e4:53:41:03:39:ad:08:25:
         1e:fc:8c:29:e8:c7:ec:78:90:ce:49:52:3d:1b:8f:af:cb:5a:
         f6:21:46:8c:22:9d:78:d5:fe:02:2e:b8:0c:c1:98:74:07:29:
         5e:aa:05:e4:9c:4a:53:ec:30:39:b3:7c:cb:94:10:68:51:bf:
         27:46:49:ca:be:bf:bc:92:0c:09:fe:6a:c9:a3:8f:d2:91:7d:
         bd:e8:9e:84
-----BEGIN CERTIFICATE-----
MIID4zCCAsugAwIBAgIQdZReH5Ap8p7UPH5rIS6gWjANBgkqhkiG9w0BAQsFADAU
MRIwEAYDVQQDDAltdGxzLWRlbW8wHhcNMjIxMjI0MTgyOTUxWhcNMjUxMjA4MTgy
OTUxWjCBjTELMAkGA1UEBhMCUk8xEjAQBgNVBAgMCUJ1Y2hhcmVzdDESMBAGA1UE
BwwJQnVjaGFyZXN0MQwwCgYDVQQKDANNVEExFjAUBgNVBAsMDU1hc3Rlci1TZXJ2
ZXIxEjAQBgNVBAMMCW10bHMtZGVtbzEcMBoGCSqGSIb3DQEJARYNc2VydmVyQG10
YS5ybzCCASIwDQYJKoZIhvcNAQEBBQADggEPADCCAQoCggEBAOBFGL3M4G/pBi7S
mw25jFUd+HfM4W6Uxx+Zdb7YOCXqMtgiUIDm/9VOmrMChZU29N60w5csGysvZik2
46rQgsJcEPHoSJ/wtM6Kd+KTxdq/+yxmZ7h3WGev3jdQMwwYtLMMzLbs/oAwR+ZM
wYmPDA9g4eO2USDPUnnrU2A5iSF+jxgM89vrfjkDA8GVBE8cUmLyTEiojbQbU8BY
b8TICsUj5qLjb4gUdPPuMe+o174DerAbNFVmF1H4kzzAQbDSVOiQqPDK8kpaPYEV
BPsQhXXeKhBYjmNxPes/PJ2kRUdwXkjlbKVEuEBxTTEHX39GI0FVYF6QTm4G0+R4
cOk+KocCAwEAAaOBtjCBszAJBgNVHRMEAjAAMB0GA1UdDgQWBBSbBnyR0BiyE4XD
3HmgTC0nqgUoxzBPBgNVHSMESDBGgBQH38iEzsjEi9KCk4EgHlMSGVpe2KEYpBYw
FDESMBAGA1UEAwwJbXRscy1kZW1vghRBN8YbVRScSxD0z5i8CIxYfj/ZtTATBgNV
HSUEDDAKBggrBgEFBQcDATALBgNVHQ8EBAMCBaAwFAYDVR0RBA0wC4IJbXRscy1k
ZW1vMA0GCSqGSIb3DQEBCwUAA4IBAQAbJLhZTfbYff4Si+3gtRUC0q/D66MG1y79
y6xGGVTsAfAeGYcTmdYq+mLGcgMz9uD4eTR4a9vs2n3zSMDWXjNPnr9KJ068i81g
Dro2c70Twmg0KrecVmA0CT4pSmTTF/nGCJ8b4JWiGAIXaJuJArhh7fYRJiZMBnaC
Jwam7wss4EZZ4q/0uTxVSMmingQaqSvyPMBGy67fhFX096XVC88Msf9QnDg6Mw6Q
INcP5FNBAzmtCCUe/Iwp6MfseJDOSVI9G4+vy1r2IUaMIp141f4CLrgMwZh0Byle
qgXknEpT7DA5s3zLlBBoUb8nRknKvr+8kgwJ/mrJo4/SkX296J6E
-----END CERTIFICATE-----
